target datalayout = "e-m:e-p270:32:32-p271:32:32-p272:64:64-i64:64-i128:128-f80:128-n8:16:32:64-S128"
target triple = "x86_64-pc-linux-gnu"

%struct.test_fixture = type { ptr, i32, ptr, ptr }

@.str.13 = private unnamed_addr constant [31 x i8] c"../openssl/test/cmp_hdr_test.c\00", align 1
@.str.14 = private unnamed_addr constant [43 x i8] c"fixture = OPENSSL_zalloc(sizeof(*fixture))\00", align 1
@.str.15 = private unnamed_addr constant [48 x i8] c"fixture->cmp_ctx = OSSL_CMP_CTX_new(NULL, NULL)\00", align 1
@.str.16 = private unnamed_addr constant [40 x i8] c"fixture->hdr = OSSL_CMP_PKIHEADER_new()\00", align 1

; Function Attrs: nounwind uwtable
define internal void @tear_down(ptr noundef %0) #0 {
  %2 = alloca ptr, align 8
  store ptr %0, ptr %2, align 8, !tbaa !4
  %3 = load ptr, ptr %2, align 8, !tbaa !4
  %4 = getelementptr inbounds nuw %struct.test_fixture, ptr %3, i32 0, i32 3
  %5 = load ptr, ptr %4, align 8, !tbaa !21
  call void @OSSL_CMP_PKIHEADER_free(ptr noundef %5)
  %6 = load ptr, ptr %2, align 8, !tbaa !4
  %7 = getelementptr inbounds nuw %struct.test_fixture, ptr %6, i32 0, i32 2
  %8 = load ptr, ptr %7, align 8, !tbaa !16
  call void @OSSL_CMP_CTX_free(ptr noundef %8)
  %9 = load ptr, ptr %2, align 8, !tbaa !4
  call void @CRYPTO_free(ptr noundef %9, ptr noundef @.str.13, i32 noundef 28)
  ret void
}

; Function Attrs: nounwind uwtable
define internal ptr @set_up(ptr noundef %0) #0 {
  %2 = alloca ptr, align 8
  %3 = alloca ptr, align 8
  %4 = alloca ptr, align 8
  %5 = alloca i32, align 4
  store ptr %0, ptr %3, align 8, !tbaa !19
  call void @llvm.lifetime.start.p0(i64 8, ptr %4) #7
  %6 = call noalias ptr @CRYPTO_zalloc(i64 noundef 32, ptr noundef @.str.13, i32 noundef 35)
  store ptr %6, ptr %4, align 8, !tbaa !4
  %7 = call i32 @test_ptr(ptr noundef @.str.13, i32 noundef 35, ptr noundef @.str.14, ptr noundef %6)
  %8 = icmp ne i32 %7, 0
  br i1 %8, label %10, label %9

9:                                                ; preds = %1
  store ptr null, ptr %2, align 8
  store i32 1, ptr %5, align 4
  br label %31

10:                                               ; preds = %1
  %11 = load ptr, ptr %3, align 8, !tbaa !19
  %12 = load ptr, ptr %4, align 8, !tbaa !4
  %13 = getelementptr inbounds nuw %struct.test_fixture, ptr %12, i32 0, i32 0
  store ptr %11, ptr %13, align 8, !tbaa !20
  %14 = call ptr @OSSL_CMP_CTX_new(ptr noundef null, ptr noundef null)
  %15 = load ptr, ptr %4, align 8, !tbaa !4
  %16 = getelementptr inbounds nuw %struct.test_fixture, ptr %15, i32 0, i32 2
  store ptr %14, ptr %16, align 8, !tbaa !16
  %17 = call i32 @test_ptr(ptr noundef @.str.13, i32 noundef 38, ptr noundef @.str.15, ptr noundef %14)
  %18 = icmp ne i32 %17, 0
  br i1 %18, label %20, label %19

19:                                               ; preds = %10
  br label %29

20:                                               ; preds = %10
  %21 = call ptr @OSSL_CMP_PKIHEADER_new()
  %22 = load ptr, ptr %4, align 8, !tbaa !4
  %23 = getelementptr inbounds nuw %struct.test_fixture, ptr %22, i32 0, i32 3
  store ptr %21, ptr %23, align 8, !tbaa !21
  %24 = call i32 @test_ptr(ptr noundef @.str.13, i32 noundef 40, ptr noundef @.str.16, ptr noundef %21)
  %25 = icmp ne i32 %24, 0
  br i1 %25, label %27, label %26

26:                                               ; preds = %20
  br label %29

27:                                               ; preds = %20
  %28 = load ptr, ptr %4, align 8, !tbaa !4
  store ptr %28, ptr %2, align 8
  store i32 1, ptr %5, align 4
  br label %31

29:                                               ; preds = %26, %19
  %30 = load ptr, ptr %4, align 8, !tbaa !4
  call void @tear_down(ptr noundef %30)
  store ptr null, ptr %2, align 8
  store i32 1, ptr %5, align 4
  br label %31

31:                                               ; preds = %29, %27, %9
  call void @llvm.lifetime.end.p0(i64 8, ptr %4) #7
  %32 = load ptr, ptr %2, align 8
  ret ptr %32
}