; Function Attrs: nounwind uwtable
define internal fastcc noundef ptr @set_up(ptr noundef %0) unnamed_addr #1 {
  %2 = tail call noalias ptr @CRYPTO_zalloc(i64 noundef 32, ptr noundef nonnull @.str.13, i32 noundef 35) #8
  %3 = tail call i32 @test_ptr(ptr noundef nonnull @.str.13, i32 noundef 35, ptr noundef nonnull @.str.14, ptr noundef %2) #8
  %.not = icmp eq i32 %3, 0
  br i1 %.not, label %16, label %4

4:                                                ; preds = %1
  store ptr %0, ptr %2, align 8, !tbaa !50
  %5 = tail call ptr @OSSL_CMP_CTX_new(ptr noundef null, ptr noundef null) #8
  %6 = getelementptr inbounds nuw i8, ptr %2, i64 16
  store ptr %5, ptr %6, align 8, !tbaa !14
  %7 = tail call i32 @test_ptr(ptr noundef nonnull @.str.13, i32 noundef 38, ptr noundef nonnull @.str.15, ptr noundef %5) #8
  %.not7 = icmp eq i32 %7, 0
  br i1 %.not7, label %12, label %8

8:                                                ; preds = %4
  %9 = tail call ptr @OSSL_CMP_PKIHEADER_new() #8
  %10 = getelementptr inbounds nuw i8, ptr %2, i64 24
  store ptr %9, ptr %10, align 8, !tbaa !13
  %11 = tail call i32 @test_ptr(ptr noundef nonnull @.str.13, i32 noundef 40, ptr noundef nonnull @.str.16, ptr noundef %9) #8
  %.not8 = icmp eq i32 %11, 0
  br i1 %.not8, label %12, label %16

12:                                               ; preds = %8, %4
  %13 = getelementptr inbounds nuw i8, ptr %2, i64 24
  %14 = load ptr, ptr %13, align 8, !tbaa !13
  tail call void @OSSL_CMP_PKIHEADER_free(ptr noundef %14) #8
  %15 = load ptr, ptr %6, align 8, !tbaa !14
  tail call void @OSSL_CMP_CTX_free(ptr noundef %15) #8
  tail call void @CRYPTO_free(ptr noundef nonnull %2, ptr noundef nonnull @.str.13, i32 noundef 28) #8
  br label %16

16:                                               ; preds = %8, %1, %12
  %.0 = phi ptr [ null, %12 ], [ null, %1 ], [ %2, %8 ]
  ret ptr %.0
}